; ModuleID = 'source-C-CXX/0/1559.c'
source_filename = "source-C-CXX/0/1559.c"
target datalayout = "e-m:e-p270:32:32-p271:32:32-p272:64:64-i64:64-f80:128-n8:16:32:64-S128"
target triple = "x86_64-pc-linux-gnu"

@p = dso_local local_unnamed_addr global i32 0, align 4
@q = dso_local local_unnamed_addr global i32 2, align 4
@.str = private unnamed_addr constant [3 x i8] c"%d\00", align 1
@.str.1 = private unnamed_addr constant [4 x i8] c"%d\0A\00", align 1

; Function Attrs: nofree nosync nounwind sspstrong uwtable
define dso_local i32 @jizu(i32 %0) local_unnamed_addr #0 {
  %2 = load i32, i32* @q, align 4, !tbaa !5
  %3 = icmp slt i32 %2, %0
  br i1 %3, label %6, label %4

4:                                                ; preds = %22, %1
  %5 = load i32, i32* @p, align 4, !tbaa !5
  ret i32 %5

6:                                                ; preds = %1, %22
  %7 = phi i32 [ %23, %22 ], [ %2, %1 ]
  %8 = srem i32 %0, %7
  %9 = sdiv i32 %0, %7
  %10 = icmp eq i32 %8, 0
  br i1 %10, label %11, label %22

11:                                               ; preds = %6
  %12 = icmp sgt i32 %9, %7
  br i1 %12, label %13, label %17

13:                                               ; preds = %11
  %14 = load i32, i32* @p, align 4, !tbaa !5
  %15 = add nsw i32 %14, 1
  store i32 %15, i32* @p, align 4, !tbaa !5
  store i32 %7, i32* @q, align 4, !tbaa !5
  %16 = tail call i32 @jizu(i32 %9)
  br label %22

17:                                               ; preds = %11
  %18 = icmp eq i32 %9, %7
  br i1 %18, label %19, label %22

19:                                               ; preds = %17
  %20 = load i32, i32* @p, align 4, !tbaa !5
  %21 = add nsw i32 %20, 1
  store i32 %21, i32* @p, align 4, !tbaa !5
  br label %22

22:                                               ; preds = %6, %13, %19, %17
  %23 = add i32 %7, 1
  %24 = icmp eq i32 %23, %0
  br i1 %24, label %4, label %6, !llvm.loop !9
}

; Function Attrs: argmemonly mustprogress nofree nosync nounwind willreturn
declare void @llvm.lifetime.start.p0i8(i64 immarg, i8* nocapture) #1

; Function Attrs: argmemonly mustprogress nofree nosync nounwind willreturn
declare void @llvm.lifetime.end.p0i8(i64 immarg, i8* nocapture) #1

; Function Attrs: nofree nounwind sspstrong uwtable
define dso_local i32 @main() local_unnamed_addr #2 {
  %1 = alloca i32, align 4
  %2 = alloca [100 x i32], align 16
  %3 = alloca i32, align 4
  %4 = bitcast i32* %1 to i8*
  call void @llvm.lifetime.start.p0i8(i64 4, i8* nonnull %4) #4
  %5 = call i32 (i8*, ...) @__isoc99_scanf(i8* getelementptr inbounds ([3 x i8], [3 x i8]* @.str, i64 0, i64 0), i32* nonnull %1)
  %6 = bitcast [100 x i32]* %2 to i8*
  call void @llvm.lifetime.start.p0i8(i64 400, i8* nonnull %6) #4
  %7 = load i32, i32* %1, align 4, !tbaa !5
  %8 = icmp sgt i32 %7, 0
  br i1 %8, label %11, label %19

9:                                                ; preds = %11
  %10 = icmp sgt i32 %16, 0
  br i1 %10, label %22, label %19

11:                                               ; preds = %0, %11
  %12 = phi i64 [ %15, %11 ], [ 0, %0 ]
  %13 = getelementptr inbounds [100 x i32], [100 x i32]* %2, i64 0, i64 %12
  %14 = call i32 (i8*, ...) @__isoc99_scanf(i8* getelementptr inbounds ([3 x i8], [3 x i8]* @.str, i64 0, i64 0), i32* nonnull %13)
  %15 = add nuw nsw i64 %12, 1
  %16 = load i32, i32* %1, align 4, !tbaa !5
  %17 = sext i32 %16 to i64
  %18 = icmp slt i64 %15, %17
  br i1 %18, label %11, label %9, !llvm.loop !11

19:                                               ; preds = %22, %0, %9
  %20 = bitcast i32* %3 to i8*
  call void @llvm.lifetime.start.p0i8(i64 4, i8* nonnull %20) #4
  %21 = call i32 (i8*, ...) @__isoc99_scanf(i8* getelementptr inbounds ([3 x i8], [3 x i8]* @.str, i64 0, i64 0), i32* nonnull %3)
  call void @llvm.lifetime.end.p0i8(i64 4, i8* nonnull %20) #4
  call void @llvm.lifetime.end.p0i8(i64 400, i8* nonnull %6) #4
  call void @llvm.lifetime.end.p0i8(i64 4, i8* nonnull %4) #4
  ret i32 0

22:                                               ; preds = %9, %22
  %23 = phi i64 [ %29, %22 ], [ 0, %9 ]
  %24 = getelementptr inbounds [100 x i32], [100 x i32]* %2, i64 0, i64 %23
  %25 = load i32, i32* %24, align 4, !tbaa !5
  %26 = call i32 @jizu(i32 %25)
  %27 = add nsw i32 %26, 1
  %28 = call i32 (i8*, ...) @printf(i8* nonnull dereferenceable(1) getelementptr inbounds ([4 x i8], [4 x i8]* @.str.1, i64 0, i64 0), i32 %27)
  store i32 0, i32* @p, align 4, !tbaa !5
  store i32 2, i32* @q, align 4, !tbaa !5
  %29 = add nuw nsw i64 %23, 1
  %30 = load i32, i32* %1, align 4, !tbaa !5
  %31 = sext i32 %30 to i64
  %32 = icmp slt i64 %29, %31
  br i1 %32, label %22, label %19, !llvm.loop !12
}

; Function Attrs: nofree nounwind
declare noundef i32 @__isoc99_scanf(i8* nocapture noundef readonly, ...) local_unnamed_addr #3

; Function Attrs: nofree nounwind
declare noundef i32 @printf(i8* nocapture noundef readonly, ...) local_unnamed_addr #3


!llvm.module.flags = !{!0, !1, !2, !3}
!llvm.ident = !{!4}

!0 = !{i32 1, !"wchar_size", i32 4}
!1 = !{i32 7, !"PIC Level", i32 2}
!2 = !{i32 7, !"PIE Level", i32 2}
!3 = !{i32 7, !"uwtable", i32 1}
!4 = !{!"clang version 13.0.0"}
!5 = !{!6, !6, i64 0}
!6 = !{!"int", !7, i64 0}
!7 = !{!"omnipotent char", !8, i64 0}
!8 = !{!"Simple C/C++ TBAA"}
!9 = distinct !{!9, !10}
!10 = !{!"llvm.loop.mustprogress"}
!11 = distinct !{!11, !10}
!12 = distinct !{!12, !10}
